; Function Attrs: mustprogress uwtable
define dso_local void @_ZN4Luau10Normalizer20unionTablesWithTableERNS_7TypeIdsEPKNS_4TypeE(ptr noundef nonnull readnone align 8 captures(none) dereferenceable(337) %0, ptr noundef nonnull align 8 dereferenceable(72) %1, ptr noundef %2) local_unnamed_addr #4 align 2 {
  %.not.i.i = icmp eq ptr %2, null
  br i1 %.not.i.i, label %7, label %4

4:                                                ; preds = %3
  %5 = load i32, ptr %2, align 8, !tbaa !52
  %6 = icmp eq i32 %5, 17
  br i1 %6, label %_ZN4Luau3getINS_9NeverTypeEEEPKT_PKNS_4TypeE.exit, label %7

7:                                                ; preds = %4, %3
  tail call void @_ZN4Luau7TypeIds6insertEPKNS_4TypeE(ptr noundef nonnull align 8 dereferenceable(72) %1, ptr noundef %2)
  br label %_ZN4Luau3getINS_9NeverTypeEEEPKT_PKNS_4TypeE.exit

_ZN4Luau3getINS_9NeverTypeEEEPKT_PKNS_4TypeE.exit: ; preds = %4, %7
  ret void
}